; Function Attrs: mustprogress uwtable
define i32 @ucptrie_getRange_77(ptr noundef readonly captures(none) %0, i32 noundef %1, i32 noundef %2, i32 noundef %3, ptr noundef %4, ptr noundef %5, ptr noundef %6) local_unnamed_addr #0 {
  %8 = alloca i32, align 4
  %9 = alloca i32, align 4
  %10 = icmp eq i32 %2, 0
  br i1 %10, label %11, label %13

11:                                               ; preds = %7
  %12 = tail call fastcc noundef i32 @_ZN12_GLOBAL__N_18getRangeEPKviPFjS1_jES1_Pj(ptr noundef %0, i32 noundef %1, ptr noundef %4, ptr noundef %5, ptr noundef %6)
  br label %ucptrie_internalGetRange_77.exit

13:                                               ; preds = %7
  call void @llvm.lifetime.start.p0(i64 4, ptr nonnull %8) #10
  %14 = icmp eq ptr %6, null
  %spec.store.select.i = select i1 %14, ptr %8, ptr %6
  %15 = icmp eq i32 %2, 2
  %16 = select i1 %15, i32 57343, i32 56319
  %17 = call fastcc noundef i32 @_ZN12_GLOBAL__N_18getRangeEPKviPFjS1_jES1_Pj(ptr noundef %0, i32 noundef %1, ptr noundef %4, ptr noundef %5, ptr noundef nonnull %spec.store.select.i)
  %18 = icmp slt i32 %17, 55295
  %19 = icmp sgt i32 %1, %16
  %or.cond.i = or i1 %19, %18
  br i1 %or.cond.i, label %33, label %20

20:                                               ; preds = %13
  %21 = load i32, ptr %spec.store.select.i, align 4, !tbaa !23
  %22 = icmp eq i32 %21, %3
  br i1 %22, label %23, label %24

23:                                               ; preds = %20
  %.not.i = icmp samesign ult i32 %17, %16
  br i1 %.not.i, label %28, label %33

24:                                               ; preds = %20
  %25 = icmp slt i32 %1, 55296
  br i1 %25, label %33, label %26

26:                                               ; preds = %24
  store i32 %3, ptr %spec.store.select.i, align 4, !tbaa !23
  %27 = icmp samesign ugt i32 %17, %16
  br i1 %27, label %33, label %28

28:                                               ; preds = %26, %23
  call void @llvm.lifetime.start.p0(i64 4, ptr nonnull %9) #10
  %29 = add nuw nsw i32 %16, 1
  %30 = call fastcc noundef i32 @_ZN12_GLOBAL__N_18getRangeEPKviPFjS1_jES1_Pj(ptr noundef %0, i32 noundef %29, ptr noundef %4, ptr noundef %5, ptr noundef nonnull %9)
  %31 = load i32, ptr %9, align 4, !tbaa !23
  %32 = icmp eq i32 %31, %3
  %..i = select i1 %32, i32 %30, i32 %16
  call void @llvm.lifetime.end.p0(i64 4, ptr nonnull %9) #10
  br label %33

33:                                               ; preds = %28, %26, %24, %23, %13
  %.1.i = phi i32 [ %..i, %28 ], [ %17, %13 ], [ %17, %23 ], [ 55295, %24 ], [ %16, %26 ]
  call void @llvm.lifetime.end.p0(i64 4, ptr nonnull %8) #10
  br label %ucptrie_internalGetRange_77.exit

ucptrie_internalGetRange_77.exit:                 ; preds = %11, %33
  %.0.i = phi i32 [ %12, %11 ], [ %.1.i, %33 ]
  ret i32 %.0.i
}